; Function Attrs: mustprogress uwtable
define noundef double @_ZNK8QuantLib30OvernightIndexFutureRateHelper19convexityAdjustmentEv(ptr nocapture noundef nonnull readonly align 8 dereferenceable(208) %this) local_unnamed_addr #6 align 2 {
entry:
  %future_ = getelementptr inbounds nuw i8, ptr %this, i64 176
  %0 = load ptr, ptr %future_, align 8, !tbaa !55
  %cmp.not.i = icmp eq ptr %0, null
  br i1 %cmp.not.i, label %cond.false.i, label %_ZNK5boost10shared_ptrIN8QuantLib20OvernightIndexFutureEEptEv.exit, !prof !49

cond.false.i:                                     ; preds = %entry
  tail call void @_ZN5boost16assertion_failedEPKcS1_S1_l(ptr noundef nonnull @.str.15, ptr noundef nonnull @__PRETTY_FUNCTION__._ZNK5boost10shared_ptrIN8QuantLib20OvernightIndexFutureEEptEv, ptr noundef nonnull @.str.16, i64 noundef 784)
  %.pre.i = load ptr, ptr %future_, align 8, !tbaa !55
  br label %_ZNK5boost10shared_ptrIN8QuantLib20OvernightIndexFutureEEptEv.exit

_ZNK5boost10shared_ptrIN8QuantLib20OvernightIndexFutureEEptEv.exit: ; preds = %entry, %cond.false.i
  %1 = phi ptr [ %0, %entry ], [ %.pre.i, %cond.false.i ]
  %call2 = tail call noundef double @_ZNK8QuantLib20OvernightIndexFuture19convexityAdjustmentEv(ptr noundef nonnull align 8 dereferenceable(156) %1)
  ret double %call2
}